target datalayout = "e-m:e-p270:32:32-p271:32:32-p272:64:64-i64:64-i128:128-f80:128-n8:16:32:64-S128"
target triple = "x86_64-pc-linux-gnu"

%struct.ret_data_info = type { i16, i32, ptr, ptr }

@.str.2 = private unnamed_addr constant [10 x i8] c"forward.c\00", align 1
@.str.14 = private unnamed_addr constant [17 x i8] c"problems with %s\00", align 1
@__func__.mark_as_failed_forward = private unnamed_addr constant [23 x i8] c"mark_as_failed_forward\00", align 1

; Function Attrs: nounwind uwtable
define dso_local void @mark_as_failed_forward(ptr noundef %0, ptr noundef %1, i32 noundef %2) #0 {
  %4 = alloca ptr, align 8
  %5 = alloca ptr, align 8
  %6 = alloca i32, align 4
  %7 = alloca ptr, align 8
  store ptr %0, ptr %4, align 8
  store ptr %1, ptr %5, align 8
  store i32 %2, ptr %6, align 4
  call void @llvm.lifetime.start.p0(i64 8, ptr %7) #8
  store ptr null, ptr %7, align 8
  br label %8

8:                                                ; preds = %3
  br label %9

9:                                                ; preds = %8
  %10 = call i32 @get_log_level()
  %11 = icmp sge i32 %10, 7
  br i1 %11, label %12, label %14

12:                                               ; preds = %9
  %13 = load ptr, ptr %5, align 8
  call void (i32, ptr, ...) @log_var(i32 noundef 7, ptr noundef @.str.14, ptr noundef %13)
  br label %14

14:                                               ; preds = %12, %9
  br label %15

15:                                               ; preds = %14
  br label %16

16:                                               ; preds = %15
  br label %17

17:                                               ; preds = %16
  br label %18

18:                                               ; preds = %17
  %19 = load ptr, ptr %4, align 8
  %20 = load ptr, ptr %19, align 8
  %21 = icmp ne ptr %20, null
  br i1 %21, label %25, label %22

22:                                               ; preds = %18
  %23 = call ptr @list_create(ptr noundef @destroy_data_info)
  %24 = load ptr, ptr %4, align 8
  store ptr %23, ptr %24, align 8
  br label %25

25:                                               ; preds = %22, %18
  %26 = call ptr @slurm_xcalloc(i64 noundef 1, i64 noundef 24, i1 noundef zeroext true, i1 noundef zeroext false, ptr noundef @.str.2, i32 noundef 884, ptr noundef @__func__.mark_as_failed_forward)
  store ptr %26, ptr %7, align 8
  %27 = load ptr, ptr %5, align 8
  %28 = call ptr @xstrdup(ptr noundef %27)
  %29 = load ptr, ptr %7, align 8
  %30 = getelementptr inbounds nuw %struct.ret_data_info, ptr %29, i32 0, i32 2
  store ptr %28, ptr %30, align 8
  %31 = load ptr, ptr %7, align 8
  %32 = getelementptr inbounds nuw %struct.ret_data_info, ptr %31, i32 0, i32 0
  store i16 9001, ptr %32, align 8
  %33 = load i32, ptr %6, align 4
  %34 = load ptr, ptr %7, align 8
  %35 = getelementptr inbounds nuw %struct.ret_data_info, ptr %34, i32 0, i32 1
  store i32 %33, ptr %35, align 4
  %36 = load ptr, ptr %4, align 8
  %37 = load ptr, ptr %36, align 8
  %38 = load ptr, ptr %7, align 8
  call void @list_push(ptr noundef %37, ptr noundef %38)
  call void @llvm.lifetime.end.p0(i64 8, ptr %7) #8
  ret void
}