; Function Attrs: nounwind uwtable
define dso_local void @mark_as_failed_forward(ptr noundef captures(none) %0, ptr noundef %1, i32 noundef %2) local_unnamed_addr #0 {
  %4 = tail call i32 @get_log_level() #10
  %5 = icmp sgt i32 %4, 6
  br i1 %5, label %6, label %7

6:                                                ; preds = %3
  tail call void (i32, ptr, ...) @log_var(i32 noundef 7, ptr noundef nonnull @.str.14, ptr noundef %1) #10
  br label %7

7:                                                ; preds = %6, %3
  %8 = load ptr, ptr %0, align 8
  %.not = icmp eq ptr %8, null
  br i1 %.not, label %9, label %11

9:                                                ; preds = %7
  %10 = tail call ptr @list_create(ptr noundef nonnull @destroy_data_info) #10
  store ptr %10, ptr %0, align 8
  br label %11

11:                                               ; preds = %9, %7
  %12 = tail call ptr @slurm_xcalloc(i64 noundef 1, i64 noundef 24, i1 noundef zeroext true, i1 noundef zeroext false, ptr noundef nonnull @.str.2, i32 noundef 884, ptr noundef nonnull @__func__.mark_as_failed_forward) #10
  %13 = tail call ptr @xstrdup(ptr noundef %1) #10
  %14 = getelementptr inbounds nuw i8, ptr %12, i64 8
  store ptr %13, ptr %14, align 8
  store i16 9001, ptr %12, align 8
  %15 = getelementptr inbounds nuw i8, ptr %12, i64 4
  store i32 %2, ptr %15, align 4
  %16 = load ptr, ptr %0, align 8
  tail call void @list_push(ptr noundef %16, ptr noundef nonnull %12) #10
  ret void
}